target datalayout = "e-m:e-p270:32:32-p271:32:32-p272:64:64-i64:64-i128:128-f80:128-n8:16:32:64-S128"
target triple = "x86_64-pc-linux-gnu"

%struct.AVTextFormatContext = type { ptr, ptr, ptr, ptr, ptr, ptr, i32, i32, [12 x i32], [12 x [100 x i32]], [12 x ptr], [12 x %struct.AVBPrint], i32, i32, i32, i32, i32, ptr, i32, ptr, i32 }
%struct.AVBPrint = type { ptr, i32, i32, i32, [1 x i8], [1000 x i8] }
%struct.FlatContext = type { ptr, ptr, i8, i32 }
%struct.AVTextWriterContext = type { ptr, ptr, ptr, ptr }
%struct.AVTextWriter = type { ptr, i32, ptr, ptr, ptr, ptr, ptr, ptr }

@.str.11 = private unnamed_addr constant [3 x i8] c"%s\00", align 1
@.str.16 = private unnamed_addr constant [4 x i8] c"%s=\00", align 1
@.str.17 = private unnamed_addr constant [6 x i8] c"\22%s\22\0A\00", align 1
@.str.18 = private unnamed_addr constant [3 x i8] c"\\n\00", align 1
@.str.19 = private unnamed_addr constant [3 x i8] c"\\r\00", align 1
@.str.20 = private unnamed_addr constant [3 x i8] c"\\\\\00", align 1
@.str.21 = private unnamed_addr constant [3 x i8] c"\\\22\00", align 1
@.str.22 = private unnamed_addr constant [3 x i8] c"\\`\00", align 1
@.str.23 = private unnamed_addr constant [3 x i8] c"\\$\00", align 1

; Function Attrs: nounwind uwtable
define internal ptr @flat_escape_value_str(ptr noundef %0, ptr noundef %1) #1 {
  %3 = alloca ptr, align 8
  %4 = alloca ptr, align 8
  %5 = alloca ptr, align 8
  store ptr %0, ptr %3, align 8, !tbaa !26
  store ptr %1, ptr %4, align 8, !tbaa !38
  call void @llvm.lifetime.start.p0(i64 8, ptr %5) #7
  %6 = load ptr, ptr %4, align 8, !tbaa !38
  store ptr %6, ptr %5, align 8, !tbaa !38
  br label %7

7:                                                ; preds = %32, %2
  %8 = load ptr, ptr %5, align 8, !tbaa !38
  %9 = load i8, ptr %8, align 1, !tbaa !22
  %10 = icmp ne i8 %9, 0
  br i1 %10, label %11, label %35

11:                                               ; preds = %7
  %12 = load ptr, ptr %5, align 8, !tbaa !38
  %13 = load i8, ptr %12, align 1, !tbaa !22
  %14 = sext i8 %13 to i32
  switch i32 %14, label %27 [
    i32 10, label %15
    i32 13, label %17
    i32 92, label %19
    i32 34, label %21
    i32 96, label %23
    i32 36, label %25
  ]

15:                                               ; preds = %11
  %16 = load ptr, ptr %3, align 8, !tbaa !26
  call void (ptr, ptr, ...) @av_bprintf(ptr noundef %16, ptr noundef @.str.11, ptr noundef @.str.18)
  br label %31

17:                                               ; preds = %11
  %18 = load ptr, ptr %3, align 8, !tbaa !26
  call void (ptr, ptr, ...) @av_bprintf(ptr noundef %18, ptr noundef @.str.11, ptr noundef @.str.19)
  br label %31

19:                                               ; preds = %11
  %20 = load ptr, ptr %3, align 8, !tbaa !26
  call void (ptr, ptr, ...) @av_bprintf(ptr noundef %20, ptr noundef @.str.11, ptr noundef @.str.20)
  br label %31

21:                                               ; preds = %11
  %22 = load ptr, ptr %3, align 8, !tbaa !26
  call void (ptr, ptr, ...) @av_bprintf(ptr noundef %22, ptr noundef @.str.11, ptr noundef @.str.21)
  br label %31

23:                                               ; preds = %11
  %24 = load ptr, ptr %3, align 8, !tbaa !26
  call void (ptr, ptr, ...) @av_bprintf(ptr noundef %24, ptr noundef @.str.11, ptr noundef @.str.22)
  br label %31

25:                                               ; preds = %11
  %26 = load ptr, ptr %3, align 8, !tbaa !26
  call void (ptr, ptr, ...) @av_bprintf(ptr noundef %26, ptr noundef @.str.11, ptr noundef @.str.23)
  br label %31

27:                                               ; preds = %11
  %28 = load ptr, ptr %3, align 8, !tbaa !26
  %29 = load ptr, ptr %5, align 8, !tbaa !38
  %30 = load i8, ptr %29, align 1, !tbaa !22
  call void @av_bprint_chars(ptr noundef %28, i8 noundef signext %30, i32 noundef 1)
  br label %31

31:                                               ; preds = %27, %25, %23, %21, %19, %17, %15
  br label %32

32:                                               ; preds = %31
  %33 = load ptr, ptr %5, align 8, !tbaa !38
  %34 = getelementptr inbounds nuw i8, ptr %33, i32 1
  store ptr %34, ptr %5, align 8, !tbaa !38
  br label %7, !llvm.loop !50

35:                                               ; preds = %7
  %36 = load ptr, ptr %3, align 8, !tbaa !26
  %37 = getelementptr inbounds nuw %struct.AVBPrint, ptr %36, i32 0, i32 0
  %38 = load ptr, ptr %37, align 8, !tbaa !29
  call void @llvm.lifetime.end.p0(i64 8, ptr %5) #7
  ret ptr %38
}

; Function Attrs: nounwind uwtable
define internal ptr @flat_escape_key_str(ptr noundef %0, ptr noundef %1, i8 noundef signext %2) #1 {
  %4 = alloca ptr, align 8
  %5 = alloca ptr, align 8
  %6 = alloca i8, align 1
  %7 = alloca ptr, align 8
  store ptr %0, ptr %4, align 8, !tbaa !26
  store ptr %1, ptr %5, align 8, !tbaa !38
  store i8 %2, ptr %6, align 1, !tbaa !22
  call void @llvm.lifetime.start.p0(i64 8, ptr %7) #7
  %8 = load ptr, ptr %5, align 8, !tbaa !38
  store ptr %8, ptr %7, align 8, !tbaa !38
  br label %9

9:                                                ; preds = %50, %3
  %10 = load ptr, ptr %7, align 8, !tbaa !38
  %11 = load i8, ptr %10, align 1, !tbaa !22
  %12 = icmp ne i8 %11, 0
  br i1 %12, label %13, label %53

13:                                               ; preds = %9
  %14 = load ptr, ptr %7, align 8, !tbaa !38
  %15 = load i8, ptr %14, align 1, !tbaa !22
  %16 = sext i8 %15 to i32
  %17 = icmp sge i32 %16, 48
  br i1 %17, label %18, label %23

18:                                               ; preds = %13
  %19 = load ptr, ptr %7, align 8, !tbaa !38
  %20 = load i8, ptr %19, align 1, !tbaa !22
  %21 = sext i8 %20 to i32
  %22 = icmp sle i32 %21, 57
  br i1 %22, label %45, label %23

23:                                               ; preds = %18, %13
  %24 = load ptr, ptr %7, align 8, !tbaa !38
  %25 = load i8, ptr %24, align 1, !tbaa !22
  %26 = sext i8 %25 to i32
  %27 = icmp sge i32 %26, 97
  br i1 %27, label %28, label %33

28:                                               ; preds = %23
  %29 = load ptr, ptr %7, align 8, !tbaa !38
  %30 = load i8, ptr %29, align 1, !tbaa !22
  %31 = sext i8 %30 to i32
  %32 = icmp sle i32 %31, 122
  br i1 %32, label %45, label %33

33:                                               ; preds = %28, %23
  %34 = load ptr, ptr %7, align 8, !tbaa !38
  %35 = load i8, ptr %34, align 1, !tbaa !22
  %36 = sext i8 %35 to i32
  %37 = icmp sge i32 %36, 65
  br i1 %37, label %38, label %43

38:                                               ; preds = %33
  %39 = load ptr, ptr %7, align 8, !tbaa !38
  %40 = load i8, ptr %39, align 1, !tbaa !22
  %41 = sext i8 %40 to i32
  %42 = icmp sle i32 %41, 90
  br i1 %42, label %45, label %43

43:                                               ; preds = %38, %33
  %44 = load ptr, ptr %4, align 8, !tbaa !26
  call void @av_bprint_chars(ptr noundef %44, i8 noundef signext 95, i32 noundef 1)
  br label %49

45:                                               ; preds = %38, %28, %18
  %46 = load ptr, ptr %4, align 8, !tbaa !26
  %47 = load ptr, ptr %7, align 8, !tbaa !38
  %48 = load i8, ptr %47, align 1, !tbaa !22
  call void @av_bprint_chars(ptr noundef %46, i8 noundef signext %48, i32 noundef 1)
  br label %49

49:                                               ; preds = %45, %43
  br label %50

50:                                               ; preds = %49
  %51 = load ptr, ptr %7, align 8, !tbaa !38
  %52 = getelementptr inbounds nuw i8, ptr %51, i32 1
  store ptr %52, ptr %7, align 8, !tbaa !38
  br label %9, !llvm.loop !48

53:                                               ; preds = %9
  %54 = load ptr, ptr %4, align 8, !tbaa !26
  %55 = getelementptr inbounds nuw %struct.AVBPrint, ptr %54, i32 0, i32 0
  %56 = load ptr, ptr %55, align 8, !tbaa !29
  call void @llvm.lifetime.end.p0(i64 8, ptr %7) #7
  ret ptr %56
}

; Function Attrs: inlinehint nounwind uwtable
define internal void @writer_put_str(ptr noundef %0, ptr noundef %1) #5 {
  %3 = alloca ptr, align 8
  %4 = alloca ptr, align 8
  store ptr %0, ptr %3, align 8, !tbaa !4
  store ptr %1, ptr %4, align 8, !tbaa !38
  %5 = load ptr, ptr %3, align 8, !tbaa !4
  %6 = getelementptr inbounds nuw %struct.AVTextFormatContext, ptr %5, i32 0, i32 2
  %7 = load ptr, ptr %6, align 8, !tbaa !41
  %8 = getelementptr inbounds nuw %struct.AVTextWriterContext, ptr %7, i32 0, i32 1
  %9 = load ptr, ptr %8, align 8, !tbaa !42
  %10 = getelementptr inbounds nuw %struct.AVTextWriter, ptr %9, i32 0, i32 6
  %11 = load ptr, ptr %10, align 8, !tbaa !47
  %12 = load ptr, ptr %3, align 8, !tbaa !4
  %13 = getelementptr inbounds nuw %struct.AVTextFormatContext, ptr %12, i32 0, i32 2
  %14 = load ptr, ptr %13, align 8, !tbaa !41
  %15 = load ptr, ptr %4, align 8, !tbaa !38
  call void %11(ptr noundef %14, ptr noundef %15)
  ret void
}

; Function Attrs: nounwind uwtable
define internal void @flat_print_str(ptr noundef %0, ptr noundef %1, ptr noundef %2) #1 {
  %4 = alloca ptr, align 8
  %5 = alloca ptr, align 8
  %6 = alloca ptr, align 8
  %7 = alloca ptr, align 8
  %8 = alloca %struct.AVBPrint, align 8
  store ptr %0, ptr %4, align 8, !tbaa !4
  store ptr %1, ptr %5, align 8, !tbaa !38
  store ptr %2, ptr %6, align 8, !tbaa !38
  call void @llvm.lifetime.start.p0(i64 8, ptr %7) #7
  %9 = load ptr, ptr %4, align 8, !tbaa !4
  %10 = getelementptr inbounds nuw %struct.AVTextFormatContext, ptr %9, i32 0, i32 4
  %11 = load ptr, ptr %10, align 8, !tbaa !9
  store ptr %11, ptr %7, align 8, !tbaa !18
  call void @llvm.lifetime.start.p0(i64 1024, ptr %8) #7
  %12 = load ptr, ptr %4, align 8, !tbaa !4
  %13 = load ptr, ptr %4, align 8, !tbaa !4
  %14 = getelementptr inbounds nuw %struct.AVTextFormatContext, ptr %13, i32 0, i32 11
  %15 = load ptr, ptr %4, align 8, !tbaa !4
  %16 = getelementptr inbounds nuw %struct.AVTextFormatContext, ptr %15, i32 0, i32 7
  %17 = load i32, ptr %16, align 4, !tbaa !25
  %18 = sext i32 %17 to i64
  %19 = getelementptr inbounds [12 x %struct.AVBPrint], ptr %14, i64 0, i64 %18
  %20 = getelementptr inbounds nuw %struct.AVBPrint, ptr %19, i32 0, i32 0
  %21 = load ptr, ptr %20, align 8, !tbaa !29
  call void @writer_put_str(ptr noundef %12, ptr noundef %21)
  call void @av_bprint_init(ptr noundef %8, i32 noundef 1, i32 noundef -1)
  %22 = load ptr, ptr %4, align 8, !tbaa !4
  %23 = load ptr, ptr %5, align 8, !tbaa !38
  %24 = load ptr, ptr %7, align 8, !tbaa !18
  %25 = getelementptr inbounds nuw %struct.FlatContext, ptr %24, i32 0, i32 2
  %26 = load i8, ptr %25, align 8, !tbaa !23
  %27 = call ptr @flat_escape_key_str(ptr noundef %8, ptr noundef %23, i8 noundef signext %26)
  call void (ptr, ptr, ...) @writer_printf(ptr noundef %22, ptr noundef @.str.16, ptr noundef %27)
  call void @av_bprint_clear(ptr noundef %8)
  %28 = load ptr, ptr %4, align 8, !tbaa !4
  %29 = load ptr, ptr %6, align 8, !tbaa !38
  %30 = call ptr @flat_escape_value_str(ptr noundef %8, ptr noundef %29)
  call void (ptr, ptr, ...) @writer_printf(ptr noundef %28, ptr noundef @.str.17, ptr noundef %30)
  %31 = call i32 @av_bprint_finalize(ptr noundef %8, ptr noundef null)
  call void @llvm.lifetime.end.p0(i64 1024, ptr %8) #7
  call void @llvm.lifetime.end.p0(i64 8, ptr %7) #7
  ret void
}