; Function Attrs: nounwind uwtable
define internal void @flat_print_str(ptr noundef readonly captures(none) %0, ptr noundef readonly captures(none) %1, ptr noundef readonly captures(none) %2) #1 {
  %4 = alloca %struct.AVBPrint, align 8
  call void @llvm.lifetime.start.p0(i64 1024, ptr nonnull %4) #8
  %5 = getelementptr inbounds nuw i8, ptr %0, i64 5000
  %6 = getelementptr inbounds nuw i8, ptr %0, i64 52
  %7 = load i32, ptr %6, align 4, !tbaa !20
  %8 = sext i32 %7 to i64
  %9 = getelementptr inbounds [12 x %struct.AVBPrint], ptr %5, i64 0, i64 %8
  %10 = load ptr, ptr %9, align 8, !tbaa !22
  %11 = getelementptr i8, ptr %0, i64 16
  %.val = load ptr, ptr %11, align 8, !tbaa !31
  %12 = getelementptr inbounds nuw i8, ptr %.val, i64 8
  %13 = load ptr, ptr %12, align 8, !tbaa !32
  %14 = getelementptr inbounds nuw i8, ptr %13, i64 48
  %15 = load ptr, ptr %14, align 8, !tbaa !35
  tail call void %15(ptr noundef %.val, ptr noundef %10) #8
  call void @av_bprint_init(ptr noundef nonnull %4, i32 noundef 1, i32 noundef -1) #8
  %16 = load i8, ptr %1, align 1, !tbaa !18
  %.not21.i = icmp eq i8 %16, 0
  br i1 %.not21.i, label %flat_escape_key_str.exit, label %.lr.ph.i

.lr.ph.i:                                         ; preds = %3, %.lr.ph.i
  %17 = phi i8 [ %23, %.lr.ph.i ], [ %16, %3 ]
  %.022.i = phi ptr [ %22, %.lr.ph.i ], [ %1, %3 ]
  %18 = add i8 %17, -48
  %or.cond.i = icmp ult i8 %18, 10
  %19 = and i8 %17, -33
  %20 = add i8 %19, -65
  %21 = icmp ult i8 %20, 26
  %or.cond20.i = or i1 %or.cond.i, %21
  %..i = select i1 %or.cond20.i, i8 %17, i8 95
  call void @av_bprint_chars(ptr noundef nonnull %4, i8 noundef signext %..i, i32 noundef 1) #8
  %22 = getelementptr inbounds nuw i8, ptr %.022.i, i64 1
  %23 = load i8, ptr %22, align 1, !tbaa !18
  %.not.i = icmp eq i8 %23, 0
  br i1 %.not.i, label %flat_escape_key_str.exit, label %.lr.ph.i, !llvm.loop !37

flat_escape_key_str.exit:                         ; preds = %.lr.ph.i, %3
  %24 = load ptr, ptr %4, align 8, !tbaa !22
  call void (ptr, ptr, ...) @writer_printf(ptr noundef nonnull %0, ptr noundef nonnull @.str.16, ptr noundef %24)
  call void @av_bprint_clear(ptr noundef nonnull %4) #8
  br label %25

25:                                               ; preds = %34, %flat_escape_key_str.exit
  %.0.i = phi ptr [ %2, %flat_escape_key_str.exit ], [ %35, %34 ]
  %26 = load i8, ptr %.0.i, align 1, !tbaa !18
  switch i8 %26, label %33 [
    i8 0, label %flat_escape_value_str.exit
    i8 10, label %27
    i8 13, label %28
    i8 92, label %29
    i8 34, label %30
    i8 96, label %31
    i8 36, label %32
  ]

27:                                               ; preds = %25
  call void (ptr, ptr, ...) @av_bprintf(ptr noundef nonnull %4, ptr noundef nonnull @.str.11, ptr noundef nonnull @.str.18) #8
  br label %34

28:                                               ; preds = %25
  call void (ptr, ptr, ...) @av_bprintf(ptr noundef nonnull %4, ptr noundef nonnull @.str.11, ptr noundef nonnull @.str.19) #8
  br label %34

29:                                               ; preds = %25
  call void (ptr, ptr, ...) @av_bprintf(ptr noundef nonnull %4, ptr noundef nonnull @.str.11, ptr noundef nonnull @.str.20) #8
  br label %34

30:                                               ; preds = %25
  call void (ptr, ptr, ...) @av_bprintf(ptr noundef nonnull %4, ptr noundef nonnull @.str.11, ptr noundef nonnull @.str.21) #8
  br label %34

31:                                               ; preds = %25
  call void (ptr, ptr, ...) @av_bprintf(ptr noundef nonnull %4, ptr noundef nonnull @.str.11, ptr noundef nonnull @.str.22) #8
  br label %34

32:                                               ; preds = %25
  call void (ptr, ptr, ...) @av_bprintf(ptr noundef nonnull %4, ptr noundef nonnull @.str.11, ptr noundef nonnull @.str.23) #8
  br label %34

33:                                               ; preds = %25
  call void @av_bprint_chars(ptr noundef nonnull %4, i8 noundef signext %26, i32 noundef 1) #8
  br label %34

34:                                               ; preds = %33, %32, %31, %30, %29, %28, %27
  %35 = getelementptr inbounds nuw i8, ptr %.0.i, i64 1
  br label %25, !llvm.loop !39

flat_escape_value_str.exit:                       ; preds = %25
  %36 = load ptr, ptr %4, align 8, !tbaa !22
  call void (ptr, ptr, ...) @writer_printf(ptr noundef nonnull %0, ptr noundef nonnull @.str.17, ptr noundef %36)
  %37 = call i32 @av_bprint_finalize(ptr noundef nonnull %4, ptr noundef null) #8
  call void @llvm.lifetime.end.p0(i64 1024, ptr nonnull %4) #8
  ret void
}